; Function Attrs: nofree norecurse nosync nounwind memory(readwrite, inaccessiblemem: none) uwtable
define internal void @SDL_Blit_BGRA8888_ABGR8888_Modulate_Scale(ptr noundef captures(none) %0) #0 {
  %2 = getelementptr inbounds nuw i8, ptr %0, i64 112
  %3 = load i32, ptr %2, align 8
  %4 = getelementptr inbounds nuw i8, ptr %0, i64 120
  %5 = load i8, ptr %4, align 8
  %6 = zext i8 %5 to i32
  %7 = getelementptr inbounds nuw i8, ptr %0, i64 121
  %8 = load i8, ptr %7, align 1
  %9 = zext i8 %8 to i32
  %10 = getelementptr inbounds nuw i8, ptr %0, i64 122
  %11 = load i8, ptr %10, align 2
  %12 = zext i8 %11 to i32
  %13 = getelementptr inbounds nuw i8, ptr %0, i64 123
  %14 = load i8, ptr %13, align 1
  %15 = zext i8 %14 to i32
  %16 = getelementptr inbounds nuw i8, ptr %0, i64 20
  %17 = load i32, ptr %16, align 4
  %18 = sext i32 %17 to i64
  %19 = shl nsw i64 %18, 16
  %20 = getelementptr inbounds nuw i8, ptr %0, i64 52
  %21 = load i32, ptr %20, align 4
  %22 = sext i32 %21 to i64
  %23 = udiv i64 %19, %22
  %24 = getelementptr inbounds nuw i8, ptr %0, i64 16
  %25 = load i32, ptr %24, align 8
  %26 = sext i32 %25 to i64
  %27 = shl nsw i64 %26, 16
  %28 = getelementptr inbounds nuw i8, ptr %0, i64 48
  %29 = load i32, ptr %28, align 8
  %30 = sext i32 %29 to i64
  %31 = udiv i64 %27, %30
  %32 = add nsw i32 %21, -1
  store i32 %32, ptr %20, align 4
  %.not77 = icmp eq i32 %21, 0
  br i1 %.not77, label %._crit_edge81, label %.lr.ph80

.lr.ph80:                                         ; preds = %1
  %33 = getelementptr inbounds nuw i8, ptr %0, i64 40
  %34 = lshr i64 %31, 1
  %35 = getelementptr inbounds nuw i8, ptr %0, i64 8
  %36 = getelementptr inbounds nuw i8, ptr %0, i64 24
  %37 = and i32 %3, 1
  %.not72 = icmp eq i32 %37, 0
  %38 = and i32 %3, 2
  %.not73 = icmp eq i32 %38, 0
  %39 = getelementptr inbounds nuw i8, ptr %0, i64 56
  %40 = icmp eq i32 %29, 0
  br i1 %40, label %.lr.ph80.split.us, label %.lr.ph80.split.preheader

.lr.ph80.split.preheader:                         ; preds = %.lr.ph80
  %41 = lshr i64 %23, 1
  br label %.lr.ph80.split

.lr.ph80.split.us:                                ; preds = %.lr.ph80
  %42 = load i32, ptr %39, align 8
  %43 = sext i32 %42 to i64
  %.promoted = load ptr, ptr %33, align 8
  %44 = zext i32 %21 to i64
  %45 = mul nsw i64 %44, %43
  %scevgep = getelementptr i8, ptr %.promoted, i64 %45
  store ptr %scevgep, ptr %33, align 8
  store i32 -1, ptr %20, align 4
  br label %._crit_edge81

.lr.ph80.split:                                   ; preds = %.lr.ph80.split.preheader, %._crit_edge
  %.06978 = phi i64 [ %124, %._crit_edge ], [ %41, %.lr.ph80.split.preheader ]
  %46 = load i32, ptr %28, align 8
  %47 = lshr i64 %.06978, 16
  %.not7174 = icmp eq i32 %46, 0
  br i1 %.not7174, label %._crit_edge, label %.lr.ph

.lr.ph:                                           ; preds = %.lr.ph80.split
  %48 = add nsw i32 %46, -1
  %49 = load ptr, ptr %33, align 8
  br i1 %.not72, label %.lr.ph.split.us, label %.lr.ph.split

.lr.ph.split.us:                                  ; preds = %.lr.ph, %69
  %50 = phi i32 [ %73, %69 ], [ %48, %.lr.ph ]
  %.06776.us = phi ptr [ %72, %69 ], [ %49, %.lr.ph ]
  %.07075.us = phi i64 [ %71, %69 ], [ %34, %.lr.ph ]
  %51 = load ptr, ptr %35, align 8
  %52 = load i32, ptr %36, align 8
  %53 = sext i32 %52 to i64
  %54 = mul i64 %47, %53
  %55 = getelementptr inbounds nuw i8, ptr %51, i64 %54
  %56 = lshr i64 %.07075.us, 14
  %57 = and i64 %56, 1125899906842620
  %58 = getelementptr inbounds nuw i8, ptr %55, i64 %57
  %59 = load i32, ptr %58, align 4
  %60 = and i32 %59, 255
  br i1 %.not73, label %69, label %61

61:                                               ; preds = %.lr.ph.split.us
  %62 = mul nuw nsw i32 %60, %15
  %63 = add nuw nsw i32 %62, 1
  %64 = lshr i32 %63, 8
  %65 = and i32 %64, 255
  %66 = add nuw nsw i32 %65, %63
  %67 = lshr i32 %66, 8
  %68 = and i32 %67, 255
  br label %69

69:                                               ; preds = %61, %.lr.ph.split.us
  %.068.us = phi i32 [ %68, %61 ], [ %60, %.lr.ph.split.us ]
  %70 = tail call i32 @llvm.fshl.i32(i32 %.068.us, i32 %59, i32 24)
  store i32 %70, ptr %.06776.us, align 4
  %71 = add i64 %.07075.us, %31
  %72 = getelementptr inbounds nuw i8, ptr %.06776.us, i64 4
  %73 = add nsw i32 %50, -1
  %.not71.us = icmp eq i32 %50, 0
  br i1 %.not71.us, label %._crit_edge, label %.lr.ph.split.us, !llvm.loop !335

.lr.ph.split:                                     ; preds = %.lr.ph, %113
  %74 = phi i32 [ %123, %113 ], [ %48, %.lr.ph ]
  %.06776 = phi ptr [ %122, %113 ], [ %49, %.lr.ph ]
  %.07075 = phi i64 [ %121, %113 ], [ %34, %.lr.ph ]
  %75 = load ptr, ptr %35, align 8
  %76 = load i32, ptr %36, align 8
  %77 = sext i32 %76 to i64
  %78 = mul i64 %47, %77
  %79 = getelementptr inbounds nuw i8, ptr %75, i64 %78
  %80 = lshr i64 %.07075, 14
  %81 = and i64 %80, 1125899906842620
  %82 = getelementptr inbounds nuw i8, ptr %79, i64 %81
  %83 = load i32, ptr %82, align 4
  %84 = lshr i32 %83, 24
  %85 = lshr i32 %83, 16
  %86 = and i32 %85, 255
  %87 = lshr i32 %83, 8
  %88 = and i32 %87, 255
  %89 = and i32 %83, 255
  %90 = mul nuw nsw i32 %88, %6
  %91 = add nuw nsw i32 %90, 1
  %92 = lshr i32 %91, 8
  %93 = and i32 %92, 255
  %94 = add nuw nsw i32 %93, %91
  %95 = lshr i32 %94, 8
  %96 = and i32 %95, 255
  %97 = mul nuw nsw i32 %86, %9
  %98 = add nuw nsw i32 %97, 1
  %99 = lshr i32 %98, 8
  %100 = and i32 %99, 255
  %101 = add nuw nsw i32 %100, %98
  %102 = and i32 %101, 65280
  %103 = mul nuw nsw i32 %84, %12
  %104 = add nuw nsw i32 %103, 1
  br i1 %.not73, label %113, label %105

105:                                              ; preds = %.lr.ph.split
  %106 = mul nuw nsw i32 %89, %15
  %107 = add nuw nsw i32 %106, 1
  %108 = lshr i32 %107, 8
  %109 = and i32 %108, 255
  %110 = add nuw nsw i32 %109, %107
  %111 = lshr i32 %110, 8
  %112 = and i32 %111, 255
  br label %113

113:                                              ; preds = %105, %.lr.ph.split
  %.068 = phi i32 [ %112, %105 ], [ %89, %.lr.ph.split ]
  %114 = shl nuw i32 %.068, 24
  %115 = shl nuw nsw i32 %104, 8
  %.mask = and i32 %104, 65280
  %116 = add nuw nsw i32 %.mask, %115
  %117 = and i32 %116, 16711680
  %118 = or disjoint i32 %114, %117
  %119 = or disjoint i32 %118, %102
  %120 = or disjoint i32 %119, %96
  store i32 %120, ptr %.06776, align 4
  %121 = add i64 %.07075, %31
  %122 = getelementptr inbounds nuw i8, ptr %.06776, i64 4
  %123 = add nsw i32 %74, -1
  %.not71 = icmp eq i32 %74, 0
  br i1 %.not71, label %._crit_edge, label %.lr.ph.split, !llvm.loop !335

._crit_edge:                                      ; preds = %113, %69, %.lr.ph80.split
  %124 = add i64 %.06978, %23
  %125 = load i32, ptr %39, align 8
  %126 = load ptr, ptr %33, align 8
  %127 = sext i32 %125 to i64
  %128 = getelementptr inbounds i8, ptr %126, i64 %127
  store ptr %128, ptr %33, align 8
  %129 = load i32, ptr %20, align 4
  %130 = add nsw i32 %129, -1
  store i32 %130, ptr %20, align 4
  %.not = icmp eq i32 %129, 0
  br i1 %.not, label %._crit_edge81, label %.lr.ph80.split, !llvm.loop !336

._crit_edge81:                                    ; preds = %._crit_edge, %.lr.ph80.split.us, %1
  ret void
}